target datalayout = "e-m:e-p270:32:32-p271:32:32-p272:64:64-i64:64-i128:128-f80:128-n8:16:32:64-S128"
target triple = "x86_64-pc-linux-gnu"

%struct.SDL_Mouse = type { ptr, ptr, ptr, ptr, ptr, ptr, ptr, ptr, ptr, ptr, ptr, ptr, ptr, ptr, i8, float, float, ptr, float, float, float, float, float, float, float, float, double, double, i8, i8, i8, i8, i8, i8, i8, i8, i64, i8, float, i8, float, i8, i32, i32, i8, i8, i8, i8, i8, i8, i8, i8, i8, ptr, i32, ptr, ptr, ptr, ptr, i8, ptr }

@SDL_mouse = internal global %struct.SDL_Mouse zeroinitializer, align 8

; Function Attrs: nounwind uwtable
define hidden void @SDL_RedrawCursor() #0 {
  %1 = alloca ptr, align 8
  %2 = alloca ptr, align 8
  call void @llvm.lifetime.start.p0(i64 8, ptr %1) #7
  %3 = call ptr @SDL_GetMouse()
  store ptr %3, ptr %1, align 8
  call void @llvm.lifetime.start.p0(i64 8, ptr %2) #7
  %4 = load ptr, ptr %1, align 8
  %5 = getelementptr inbounds nuw %struct.SDL_Mouse, ptr %4, i32 0, i32 17
  %6 = load ptr, ptr %5, align 8
  %7 = icmp ne ptr %6, null
  br i1 %7, label %8, label %12

8:                                                ; preds = %0
  %9 = load ptr, ptr %1, align 8
  %10 = getelementptr inbounds nuw %struct.SDL_Mouse, ptr %9, i32 0, i32 58
  %11 = load ptr, ptr %10, align 8
  store ptr %11, ptr %2, align 8
  br label %16

12:                                               ; preds = %0
  %13 = load ptr, ptr %1, align 8
  %14 = getelementptr inbounds nuw %struct.SDL_Mouse, ptr %13, i32 0, i32 57
  %15 = load ptr, ptr %14, align 8
  store ptr %15, ptr %2, align 8
  br label %16

16:                                               ; preds = %12, %8
  %17 = load ptr, ptr %1, align 8
  %18 = getelementptr inbounds nuw %struct.SDL_Mouse, ptr %17, i32 0, i32 17
  %19 = load ptr, ptr %18, align 8
  %20 = icmp ne ptr %19, null
  br i1 %20, label %21, label %37

21:                                               ; preds = %16
  %22 = load ptr, ptr %1, align 8
  %23 = getelementptr inbounds nuw %struct.SDL_Mouse, ptr %22, i32 0, i32 59
  %24 = load i8, ptr %23, align 8, !range !3, !noundef !4
  %25 = trunc i8 %24 to i1
  br i1 %25, label %26, label %36

26:                                               ; preds = %21
  %27 = load ptr, ptr %1, align 8
  %28 = getelementptr inbounds nuw %struct.SDL_Mouse, ptr %27, i32 0, i32 29
  %29 = load i8, ptr %28, align 1, !range !3, !noundef !4
  %30 = trunc i8 %29 to i1
  br i1 %30, label %31, label %37

31:                                               ; preds = %26
  %32 = load ptr, ptr %1, align 8
  %33 = getelementptr inbounds nuw %struct.SDL_Mouse, ptr %32, i32 0, i32 31
  %34 = load i8, ptr %33, align 1, !range !3, !noundef !4
  %35 = trunc i8 %34 to i1
  br i1 %35, label %36, label %37

36:                                               ; preds = %31, %21
  store ptr null, ptr %2, align 8
  br label %37

37:                                               ; preds = %36, %31, %26, %16
  %38 = load ptr, ptr %1, align 8
  %39 = getelementptr inbounds nuw %struct.SDL_Mouse, ptr %38, i32 0, i32 2
  %40 = load ptr, ptr %39, align 8
  %41 = icmp ne ptr %40, null
  br i1 %41, label %42, label %48

42:                                               ; preds = %37
  %43 = load ptr, ptr %1, align 8
  %44 = getelementptr inbounds nuw %struct.SDL_Mouse, ptr %43, i32 0, i32 2
  %45 = load ptr, ptr %44, align 8
  %46 = load ptr, ptr %2, align 8
  %47 = call zeroext i1 %45(ptr noundef %46)
  br label %48

48:                                               ; preds = %42, %37
  call void @llvm.lifetime.end.p0(i64 8, ptr %2) #7
  call void @llvm.lifetime.end.p0(i64 8, ptr %1) #7
  ret void
}

; Function Attrs: nounwind uwtable
define hidden ptr @SDL_GetMouse() #0 {
  ret ptr @SDL_mouse
}

; Function Attrs: nounwind uwtable
define hidden zeroext i1 @SDL_HideCursor_REAL() #0 {
  %1 = alloca ptr, align 8
  call void @llvm.lifetime.start.p0(i64 8, ptr %1) #7
  %2 = call ptr @SDL_GetMouse()
  store ptr %2, ptr %1, align 8
  %3 = load ptr, ptr %1, align 8
  %4 = getelementptr inbounds nuw %struct.SDL_Mouse, ptr %3, i32 0, i32 59
  %5 = load i8, ptr %4, align 8, !range !3, !noundef !4
  %6 = trunc i8 %5 to i1
  br i1 %6, label %7, label %10

7:                                                ; preds = %0
  %8 = load ptr, ptr %1, align 8
  %9 = getelementptr inbounds nuw %struct.SDL_Mouse, ptr %8, i32 0, i32 59
  store i8 0, ptr %9, align 8
  call void @SDL_RedrawCursor()
  br label %10

10:                                               ; preds = %7, %0
  call void @llvm.lifetime.end.p0(i64 8, ptr %1) #7
  ret i1 true
}