; Function Attrs: nounwind uwtable
define hidden noundef zeroext i1 @SDL_HideCursor_REAL() local_unnamed_addr #0 {
  %1 = load i8, ptr getelementptr inbounds nuw (i8, ptr @SDL_mouse, i64 288), align 8, !range !3, !noundef !4
  %2 = trunc nuw i8 %1 to i1
  br i1 %2, label %3, label %SDL_RedrawCursor.exit

3:                                                ; preds = %0
  store i8 0, ptr getelementptr inbounds nuw (i8, ptr @SDL_mouse, i64 288), align 8
  %4 = load ptr, ptr getelementptr inbounds nuw (i8, ptr @SDL_mouse, i64 16), align 8
  %.not12.i = icmp eq ptr %4, null
  br i1 %.not12.i, label %SDL_RedrawCursor.exit, label %5

5:                                                ; preds = %3
  %6 = load ptr, ptr getelementptr inbounds nuw (i8, ptr @SDL_mouse, i64 128), align 8
  %.not.i = icmp eq ptr %6, null
  %.val.i = load ptr, ptr getelementptr inbounds nuw (i8, ptr @SDL_mouse, i64 272), align 8
  %spec.select = select i1 %.not.i, ptr %.val.i, ptr null
  %7 = tail call zeroext i1 %4(ptr noundef %spec.select) #13
  br label %SDL_RedrawCursor.exit

SDL_RedrawCursor.exit:                            ; preds = %5, %3, %0
  ret i1 true
}